(lp0
S'poi'
p1
aS'salary'
p2
aS'deferral_payments'
p3
aS'bonus'
p4
aS'deferred_income'
p5
aS'total_stock_value'
p6
aS'expenses'
p7
aS'exercised_stock_options'
p8
aS'other'
p9
aS'fraction_from_poi'
p10
aS'fraction_to_poi'
p11
a.